target datalayout = "e-m:e-p270:32:32-p271:32:32-p272:64:64-i64:64-i128:128-f80:128-n8:16:32:64-S128"
target triple = "x86_64-pc-linux-gnu"

; Function Attrs: mustprogress nounwind uwtable
define hidden noundef ptr @_ZN11OptoRuntime23Math_Vector_Vector_TypeEjPK8TypeVectS2_(i32 noundef %0, ptr noundef %1, ptr noundef %2) #1 align 2 {
  %4 = alloca i32, align 4
  %5 = alloca ptr, align 8
  %6 = alloca ptr, align 8
  %7 = alloca ptr, align 8
  %8 = alloca i32, align 4
  %9 = alloca ptr, align 8
  %10 = alloca i32, align 4
  %11 = alloca ptr, align 8
  store i32 %0, ptr %4, align 4
  store ptr %1, ptr %5, align 8
  store ptr %2, ptr %6, align 8
  %12 = load i32, ptr %4, align 4
  %13 = call noundef ptr @_ZN9TypeTuple6fieldsEj(i32 noundef %12)
  store ptr %13, ptr %7, align 8
  store i32 0, ptr %8, align 4
  br label %14

14:                                               ; preds = %25, %3
  %15 = load i32, ptr %8, align 4
  %16 = load i32, ptr %4, align 4
  %17 = icmp ult i32 %15, %16
  br i1 %17, label %18, label %28

18:                                               ; preds = %14
  %19 = load ptr, ptr %5, align 8
  %20 = load ptr, ptr %7, align 8
  %21 = load i32, ptr %8, align 4
  %22 = add i32 5, %21
  %23 = zext i32 %22 to i64
  %24 = getelementptr inbounds ptr, ptr %20, i64 %23
  store ptr %19, ptr %24, align 8
  br label %25

25:                                               ; preds = %18
  %26 = load i32, ptr %8, align 4
  %27 = add i32 %26, 1
  store i32 %27, ptr %8, align 4
  br label %14, !llvm.loop !8

28:                                               ; preds = %14
  %29 = load i32, ptr %4, align 4
  %30 = add i32 5, %29
  %31 = load ptr, ptr %7, align 8
  %32 = call noundef ptr @_ZN9TypeTuple4makeEjPPK4Type(i32 noundef %30, ptr noundef %31)
  store ptr %32, ptr %9, align 8
  store i32 1, ptr %10, align 4
  %33 = call noundef ptr @_ZN9TypeTuple6fieldsEj(i32 noundef 1)
  store ptr %33, ptr %7, align 8
  %34 = load ptr, ptr %6, align 8
  %35 = load ptr, ptr %7, align 8
  %36 = getelementptr inbounds ptr, ptr %35, i64 5
  store ptr %34, ptr %36, align 8
  %37 = load ptr, ptr %7, align 8
  %38 = call noundef ptr @_ZN9TypeTuple4makeEjPPK4Type(i32 noundef 6, ptr noundef %37)
  store ptr %38, ptr %11, align 8
  %39 = load ptr, ptr %9, align 8
  %40 = load ptr, ptr %11, align 8
  %41 = call noundef ptr @_ZN8TypeFunc4makeEPK9TypeTupleS2_(ptr noundef %39, ptr noundef %40)
  ret ptr %41
}