; Function Attrs: mustprogress nounwind uwtable
define hidden noundef ptr @_ZN11OptoRuntime23Math_Vector_Vector_TypeEjPK8TypeVectS2_(i32 noundef %0, ptr noundef %1, ptr noundef %2) local_unnamed_addr #0 align 2 {
  %4 = tail call noundef ptr @_ZN9TypeTuple6fieldsEj(i32 noundef %0) #12
  %.not = icmp eq i32 %0, 0
  br i1 %.not, label %._crit_edge, label %.lr.ph.preheader

.lr.ph.preheader:                                 ; preds = %3
  %wide.trip.count = zext i32 %0 to i64
  br label %.lr.ph

.lr.ph:                                           ; preds = %.lr.ph.preheader, %.lr.ph
  %indvars.iv = phi i64 [ 0, %.lr.ph.preheader ], [ %indvars.iv.next, %.lr.ph ]
  %5 = add nuw i64 %indvars.iv, 5
  %6 = and i64 %5, 4294967295
  %7 = getelementptr inbounds ptr, ptr %4, i64 %6
  store ptr %1, ptr %7, align 8
  %indvars.iv.next = add nuw nsw i64 %indvars.iv, 1
  %exitcond.not = icmp eq i64 %indvars.iv.next, %wide.trip.count
  br i1 %exitcond.not, label %._crit_edge, label %.lr.ph, !llvm.loop !15

._crit_edge:                                      ; preds = %.lr.ph, %3
  %8 = add i32 %0, 5
  %9 = tail call noundef ptr @_ZN9TypeTuple4makeEjPPK4Type(i32 noundef %8, ptr noundef %4) #12
  %10 = tail call noundef ptr @_ZN9TypeTuple6fieldsEj(i32 noundef 1) #12
  %11 = getelementptr inbounds i8, ptr %10, i64 40
  store ptr %2, ptr %11, align 8
  %12 = tail call noundef ptr @_ZN9TypeTuple4makeEjPPK4Type(i32 noundef 6, ptr noundef %10) #12
  %13 = tail call noundef ptr @_ZN8TypeFunc4makeEPK9TypeTupleS2_(ptr noundef %9, ptr noundef %12) #12
  ret ptr %13
}